target datalayout = "e-m:e-p270:32:32-p271:32:32-p272:64:64-i64:64-i128:128-f80:128-n8:16:32:64-S128"
target triple = "x86_64-unknown-linux-gnu"

%"class.rocksdb::Slice" = type { ptr, i64 }
%"class.rocksdb::InternalKeyComparator" = type { %"class.rocksdb::CompareInterface", %"class.rocksdb::UserComparatorWrapper" }
%"class.rocksdb::CompareInterface" = type { ptr }
%"class.rocksdb::UserComparatorWrapper" = type { ptr }
%"class.rocksdb::PlainTableReader" = type { %"class.rocksdb::TableReader", %"class.rocksdb::InternalKeyComparator", i8, %"class.rocksdb::Status", %"class.rocksdb::PlainTableIndex", i8, i32, i32, ptr, i8, %"class.rocksdb::PlainTableBloomV1", %"struct.rocksdb::PlainTableReaderFileInfo", %"class.rocksdb::Arena", %"class.std::unique_ptr.19", %"class.std::unique_ptr.19", ptr, %"class.std::unique_ptr.27", i64, %"class.std::shared_ptr", [8 x i8] }
%"class.rocksdb::TableReader" = type { ptr }
%"class.rocksdb::Status" = type { i8, i8, i8, i8, i8, i8, %"class.std::unique_ptr" }
%"class.std::unique_ptr" = type { %"struct.std::__uniq_ptr_data" }
%"struct.std::__uniq_ptr_data" = type { %"class.std::__uniq_ptr_impl" }
%"class.std::__uniq_ptr_impl" = type { %"class.std::tuple" }
%"class.std::tuple" = type { %"struct.std::_Tuple_impl" }
%"struct.std::_Tuple_impl" = type { %"struct.std::_Head_base.1" }
%"struct.std::_Head_base.1" = type { ptr }
%"class.rocksdb::PlainTableIndex" = type { i32, i32, i32, ptr, ptr }
%"class.rocksdb::PlainTableBloomV1" = type { i32, i32, i32, ptr }
%"struct.rocksdb::PlainTableReaderFileInfo" = type { i8, %"class.rocksdb::Slice", i32, %"class.std::unique_ptr.2" }
%"class.std::unique_ptr.2" = type { %"struct.std::__uniq_ptr_data.3" }
%"struct.std::__uniq_ptr_data.3" = type { %"class.std::__uniq_ptr_impl.4" }
%"class.std::__uniq_ptr_impl.4" = type { %"class.std::tuple.5" }
%"class.std::tuple.5" = type { %"struct.std::_Tuple_impl.6" }
%"struct.std::_Tuple_impl.6" = type { %"struct.std::_Head_base.9" }
%"struct.std::_Head_base.9" = type { ptr }
%"class.rocksdb::Arena" = type { %"class.rocksdb::Allocator", [8 x i8], [2048 x i8], i64, %"class.std::deque", %"class.std::deque.13", i64, ptr, ptr, i64, i64, i64, ptr }
%"class.rocksdb::Allocator" = type { ptr }
%"class.std::deque" = type { %"class.std::_Deque_base" }
%"class.std::_Deque_base" = type { %"struct.std::_Deque_base<std::unique_ptr<char[]>, std::allocator<std::unique_ptr<char[]>>>::_Deque_impl" }
%"struct.std::_Deque_base<std::unique_ptr<char[]>, std::allocator<std::unique_ptr<char[]>>>::_Deque_impl" = type { %"struct.std::_Deque_base<std::unique_ptr<char[]>, std::allocator<std::unique_ptr<char[]>>>::_Deque_impl_data" }
%"struct.std::_Deque_base<std::unique_ptr<char[]>, std::allocator<std::unique_ptr<char[]>>>::_Deque_impl_data" = type { ptr, i64, %"struct.std::_Deque_iterator", %"struct.std::_Deque_iterator" }
%"struct.std::_Deque_iterator" = type { ptr, ptr, ptr, ptr }
%"class.std::deque.13" = type { %"class.std::_Deque_base.14" }
%"class.std::_Deque_base.14" = type { %"struct.std::_Deque_base<rocksdb::MemMapping, std::allocator<rocksdb::MemMapping>>::_Deque_impl" }
%"struct.std::_Deque_base<rocksdb::MemMapping, std::allocator<rocksdb::MemMapping>>::_Deque_impl" = type { %"struct.std::_Deque_base<rocksdb::MemMapping, std::allocator<rocksdb::MemMapping>>::_Deque_impl_data" }
%"struct.std::_Deque_base<rocksdb::MemMapping, std::allocator<rocksdb::MemMapping>>::_Deque_impl_data" = type { ptr, i64, %"struct.std::_Deque_iterator.18", %"struct.std::_Deque_iterator.18" }
%"struct.std::_Deque_iterator.18" = type { ptr, ptr, ptr, ptr }
%"class.std::unique_ptr.19" = type { %"struct.std::__uniq_ptr_data.20" }
%"struct.std::__uniq_ptr_data.20" = type { %"class.std::__uniq_ptr_impl.21" }
%"class.std::__uniq_ptr_impl.21" = type { %"class.std::tuple.22" }
%"class.std::tuple.22" = type { %"struct.std::_Tuple_impl.23" }
%"struct.std::_Tuple_impl.23" = type { %"struct.std::_Tuple_impl.24", %"struct.std::_Head_base.26" }
%"struct.std::_Tuple_impl.24" = type { %"struct.std::_Head_base.25" }
%"struct.std::_Head_base.25" = type { %"struct.rocksdb::CustomDeleter" }
%"struct.rocksdb::CustomDeleter" = type { ptr }
%"struct.std::_Head_base.26" = type { ptr }
%"class.std::unique_ptr.27" = type { %"struct.std::__uniq_ptr_data.28" }
%"struct.std::__uniq_ptr_data.28" = type { %"class.std::__uniq_ptr_impl.29" }
%"class.std::__uniq_ptr_impl.29" = type { %"class.std::tuple.30" }
%"class.std::tuple.30" = type { %"struct.std::_Tuple_impl.31" }
%"struct.std::_Tuple_impl.31" = type { %"struct.std::_Head_base.34" }
%"struct.std::_Head_base.34" = type { ptr }
%"class.std::shared_ptr" = type { %"class.std::__shared_ptr" }
%"class.std::__shared_ptr" = type { ptr, %"class.std::__shared_count" }
%"class.std::__shared_count" = type { ptr }
%"struct.rocksdb::ReadOptions" = type <{ ptr, ptr, ptr, %"class.std::chrono::duration", %"class.std::chrono::duration", i32, i32, i64, %"class.std::optional", i8, i8, i8, i8, i8, [3 x i8], i64, i64, ptr, ptr, i8, i8, i8, i8, i8, i8, i8, i8, %"class.std::function", i8, i8, [6 x i8] }>
%"class.std::chrono::duration" = type { i64 }
%"class.std::optional" = type { %"struct.std::_Optional_base" }
%"struct.std::_Optional_base" = type { %"struct.std::_Optional_payload" }
%"struct.std::_Optional_payload" = type { %"struct.std::_Optional_payload_base.base", [7 x i8] }
%"struct.std::_Optional_payload_base.base" = type <{ %"union.std::_Optional_payload_base<unsigned long>::_Storage", i8 }>
%"union.std::_Optional_payload_base<unsigned long>::_Storage" = type { i64 }
%"class.std::function" = type { %"class.std::_Function_base", ptr }
%"class.std::_Function_base" = type { %"union.std::_Any_data", ptr }
%"union.std::_Any_data" = type { %"union.std::_Nocopy_types" }
%"union.std::_Nocopy_types" = type { { i64, i64 } }

@_ZN7rocksdb18PlainTableIteratorC1EPNS_16PlainTableReaderEb = unnamed_addr alias void (ptr, ptr, i1), ptr @_ZN7rocksdb18PlainTableIteratorC2EPNS_16PlainTableReaderEb

; Function Attrs: mustprogress nounwind uwtable
define linkonce_odr noundef zeroext i1 @_ZNK7rocksdb16PlainTableReader16IsTotalOrderModeEv(ptr noundef nonnull align 16 dereferenceable(2536) %this) #1 comdat align 2 {
entry:
  %this.addr = alloca ptr, align 8
  store ptr %this, ptr %this.addr, align 8
  %this1 = load ptr, ptr %this.addr, align 8
  %prefix_extractor_ = getelementptr inbounds %"class.rocksdb::PlainTableReader", ptr %this1, i32 0, i32 8
  %0 = load ptr, ptr %prefix_extractor_, align 16
  %cmp = icmp eq ptr %0, null
  ret i1 %cmp
}

; Function Attrs: mustprogress uwtable
define noundef ptr @_ZN7rocksdb16PlainTableReader11NewIteratorERKNS_11ReadOptionsEPKNS_14SliceTransformEPNS_5ArenaEbNS_17TableReaderCallerEmb(ptr noundef nonnull align 16 dereferenceable(2536) %this, ptr noundef nonnull align 8 dereferenceable(154) %options, ptr noundef %0, ptr noundef %arena, i1 noundef zeroext %1, i8 noundef signext %2, i64 noundef %3, i1 noundef zeroext %4) unnamed_addr #0 align 2 personality ptr @__gxx_personality_v0 {
entry:
  %retval = alloca ptr, align 8
  %this.addr = alloca ptr, align 8
  %options.addr = alloca ptr, align 8
  %.addr = alloca ptr, align 8
  %arena.addr = alloca ptr, align 8
  %.addr1 = alloca i8, align 1
  %.addr2 = alloca i8, align 1
  %.addr3 = alloca i64, align 8
  %.addr4 = alloca i8, align 1
  %use_prefix_seek = alloca i8, align 1
  %exn.slot = alloca ptr, align 8
  %ehselector.slot = alloca i32, align 4
  %mem = alloca ptr, align 8
  store ptr %this, ptr %this.addr, align 8
  store ptr %options, ptr %options.addr, align 8
  store ptr %0, ptr %.addr, align 8
  store ptr %arena, ptr %arena.addr, align 8
  %frombool = zext i1 %1 to i8
  store i8 %frombool, ptr %.addr1, align 1
  store i8 %2, ptr %.addr2, align 1
  store i64 %3, ptr %.addr3, align 8
  %frombool5 = zext i1 %4 to i8
  store i8 %frombool5, ptr %.addr4, align 1
  %this6 = load ptr, ptr %this.addr, align 8
  %call = call noundef zeroext i1 @_ZNK7rocksdb16PlainTableReader16IsTotalOrderModeEv(ptr noundef nonnull align 16 dereferenceable(2536) %this6)
  br i1 %call, label %land.end, label %land.lhs.true

land.lhs.true:                                    ; preds = %entry
  %5 = load ptr, ptr %options.addr, align 8
  %total_order_seek = getelementptr inbounds %"struct.rocksdb::ReadOptions", ptr %5, i32 0, i32 21
  %6 = load i8, ptr %total_order_seek, align 2
  %tobool = trunc i8 %6 to i1
  br i1 %tobool, label %land.end, label %land.rhs

land.rhs:                                         ; preds = %land.lhs.true
  %7 = load ptr, ptr %options.addr, align 8
  %auto_prefix_mode = getelementptr inbounds %"struct.rocksdb::ReadOptions", ptr %7, i32 0, i32 22
  %8 = load i8, ptr %auto_prefix_mode, align 1
  %tobool7 = trunc i8 %8 to i1
  %lnot = xor i1 %tobool7, true
  br label %land.end

land.end:                                         ; preds = %land.rhs, %land.lhs.true, %entry
  %9 = phi i1 [ false, %land.lhs.true ], [ false, %entry ], [ %lnot, %land.rhs ]
  %frombool8 = zext i1 %9 to i8
  store i8 %frombool8, ptr %use_prefix_seek, align 1
  %10 = load ptr, ptr %arena.addr, align 8
  %cmp = icmp eq ptr %10, null
  br i1 %cmp, label %if.then, label %if.else

if.then:                                          ; preds = %land.end
  %call9 = call noalias noundef nonnull ptr @_Znwm(i64 noundef 280) #19
  %11 = load i8, ptr %use_prefix_seek, align 1
  %tobool10 = trunc i8 %11 to i1
  invoke void @_ZN7rocksdb18PlainTableIteratorC1EPNS_16PlainTableReaderEb(ptr noundef nonnull align 8 dereferenceable(280) %call9, ptr noundef %this6, i1 noundef zeroext %tobool10)
          to label %invoke.cont unwind label %lpad

invoke.cont:                                      ; preds = %if.then
  store ptr %call9, ptr %retval, align 8
  br label %return

lpad:                                             ; preds = %if.then
  %12 = landingpad { ptr, i32 }
          cleanup
  %13 = extractvalue { ptr, i32 } %12, 0
  store ptr %13, ptr %exn.slot, align 8
  %14 = extractvalue { ptr, i32 } %12, 1
  store i32 %14, ptr %ehselector.slot, align 4
  call void @_ZdlPv(ptr noundef %call9) #18
  br label %eh.resume

if.else:                                          ; preds = %land.end
  %15 = load ptr, ptr %arena.addr, align 8
  %vtable = load ptr, ptr %15, align 16
  %vfn = getelementptr inbounds ptr, ptr %vtable, i64 3
  %16 = load ptr, ptr %vfn, align 8
  %call11 = call noundef ptr %16(ptr noundef nonnull align 16 dereferenceable(2288) %15, i64 noundef 280, i64 noundef 0, ptr noundef null)
  store ptr %call11, ptr %mem, align 8
  %17 = load ptr, ptr %mem, align 8
  %18 = load i8, ptr %use_prefix_seek, align 1
  %tobool12 = trunc i8 %18 to i1
  call void @_ZN7rocksdb18PlainTableIteratorC1EPNS_16PlainTableReaderEb(ptr noundef nonnull align 8 dereferenceable(280) %17, ptr noundef %this6, i1 noundef zeroext %tobool12)
  store ptr %17, ptr %retval, align 8
  br label %return

return:                                           ; preds = %if.else, %invoke.cont
  %19 = load ptr, ptr %retval, align 8
  ret ptr %19

eh.resume:                                        ; preds = %lpad
  %exn = load ptr, ptr %exn.slot, align 8
  %sel = load i32, ptr %ehselector.slot, align 4
  %lpad.val = insertvalue { ptr, i32 } poison, ptr %exn, 0
  %lpad.val13 = insertvalue { ptr, i32 } %lpad.val, i32 %sel, 1
  resume { ptr, i32 } %lpad.val13
}