; Function Attrs: mustprogress uwtable
define noundef ptr @_ZN7rocksdb16PlainTableReader11NewIteratorERKNS_11ReadOptionsEPKNS_14SliceTransformEPNS_5ArenaEbNS_17TableReaderCallerEmb(ptr noundef nonnull align 16 dereferenceable(2536) %this, ptr nocapture noundef nonnull readonly align 8 dereferenceable(154) %options, ptr nocapture readnone %0, ptr noundef %arena, i1 zeroext %1, i8 signext %2, i64 %3, i1 zeroext %4) unnamed_addr #3 align 2 personality ptr @__gxx_personality_v0 {
entry:
  %prefix_extractor_.i = getelementptr inbounds i8, ptr %this, i64 96
  %5 = load ptr, ptr %prefix_extractor_.i, align 16
  %cmp.i = icmp eq ptr %5, null
  br i1 %cmp.i, label %land.end, label %land.lhs.true

land.lhs.true:                                    ; preds = %entry
  %total_order_seek = getelementptr inbounds i8, ptr %options, i64 114
  %6 = load i8, ptr %total_order_seek, align 2
  %7 = and i8 %6, 1
  %tobool.not = icmp eq i8 %7, 0
  br i1 %tobool.not, label %land.rhs, label %land.end

land.rhs:                                         ; preds = %land.lhs.true
  %auto_prefix_mode = getelementptr inbounds i8, ptr %options, i64 115
  %8 = load i8, ptr %auto_prefix_mode, align 1
  %9 = and i8 %8, 1
  %tobool7.not = icmp eq i8 %9, 0
  br label %land.end

land.end:                                         ; preds = %land.rhs, %land.lhs.true, %entry
  %10 = phi i1 [ false, %land.lhs.true ], [ false, %entry ], [ %tobool7.not, %land.rhs ]
  %cmp = icmp eq ptr %arena, null
  br i1 %cmp, label %if.then, label %if.else

if.then:                                          ; preds = %land.end
  %call9 = tail call noalias noundef nonnull dereferenceable(280) ptr @_Znwm(i64 noundef 280) #26
  invoke void @_ZN7rocksdb18PlainTableIteratorC1EPNS_16PlainTableReaderEb(ptr noundef nonnull align 8 dereferenceable(280) %call9, ptr noundef nonnull %this, i1 noundef zeroext %10)
          to label %return unwind label %lpad

lpad:                                             ; preds = %if.then
  %11 = landingpad { ptr, i32 }
          cleanup
  tail call void @_ZdlPv(ptr noundef nonnull %call9) #23
  resume { ptr, i32 } %11

if.else:                                          ; preds = %land.end
  %vtable = load ptr, ptr %arena, align 16
  %vfn = getelementptr inbounds i8, ptr %vtable, i64 24
  %12 = load ptr, ptr %vfn, align 8
  %call11 = tail call noundef ptr %12(ptr noundef nonnull align 16 dereferenceable(2288) %arena, i64 noundef 280, i64 noundef 0, ptr noundef null)
  tail call void @_ZN7rocksdb18PlainTableIteratorC1EPNS_16PlainTableReaderEb(ptr noundef nonnull align 8 dereferenceable(280) %call11, ptr noundef nonnull %this, i1 noundef zeroext %10)
  br label %return

return:                                           ; preds = %if.then, %if.else
  %retval.0 = phi ptr [ %call11, %if.else ], [ %call9, %if.then ]
  ret ptr %retval.0
}